target datalayout = "e-m:e-p270:32:32-p271:32:32-p272:64:64-i64:64-i128:128-f80:128-n8:16:32:64-S128"
target triple = "x86_64-pc-linux-gnu"

%struct.AVChannelLayout = type { i32, i32, %union.anon.0, ptr }
%union.anon.0 = type { i64 }
%struct.AVCodecContext = type { ptr, i32, i32, ptr, i32, i32, ptr, ptr, ptr, i64, i32, i32, ptr, i32, %struct.AVRational, %struct.AVRational, %struct.AVRational, i32, i32, i32, i32, i32, %struct.AVRational, i32, i32, i32, i32, i32, i32, i32, i32, i32, i32, i32, ptr, ptr, i32, float, float, float, float, float, float, float, float, float, i32, i32, i32, i32, i32, i32, i32, i32, i32, i32, i32, i32, ptr, ptr, ptr, i32, i32, i32, i32, i32, i32, i32, i32, i32, i32, %struct.AVChannelLayout, i32, i32, i32, i32, i32, i32, i32, i32, ptr, i32, i32, i32, float, float, i32, i32, i32, i32, i32, ptr, i64, i64, float, float, i32, i32, ptr, ptr, i32, i32, i32, i32, i32, ptr, ptr, ptr, ptr, i32, i32, [8 x i64], i32, i32, i32, i32, i32, i32, i32, ptr, ptr, i32, i32, i32, i32, i32, i32, i32, i32, i32, i32, ptr, ptr, i32, i32, ptr, ptr, ptr, ptr, i32, i32, i64, i32, i32, i64, ptr, i64, ptr, i32, ptr, i32 }
%struct.AVRational = type { i32, i32 }
%struct.WMAVoiceContext = type { %struct.GetBitContext, [25 x i8], i32, i32, i32, i32, i32, i32, i32, i32, i32, i32, i32, i32, i32, i32, i32, i32, [4 x i16], i32, i32, i32, [320 x i8], i32, %struct.PutBitContext, [16 x double], i32, i32, i32, float, i32, i32, [2 x i32], [2 x i32], i32, i32, i32, [6 x float], [416 x float], [16 x float], ptr, ptr, ptr, ptr, ptr, ptr, ptr, ptr, [511 x float], [511 x float], float, [2 x float], [896 x float], [160 x float], i32, [130 x float], [8 x i8], [130 x float], [8 x i8], [144 x float] }
%struct.GetBitContext = type { ptr, ptr, i32, i32, i32 }
%struct.PutBitContext = type { i32, i32, ptr, ptr, ptr }

; Function Attrs: cold nounwind optsize uwtable
define internal i32 @wmavoice_decode_end(ptr noundef %0) #0 {
  %2 = alloca ptr, align 8
  %3 = alloca ptr, align 8
  store ptr %0, ptr %2, align 8, !tbaa !4
  call void @llvm.lifetime.start.p0(i64 8, ptr %3) #11
  %4 = load ptr, ptr %2, align 8, !tbaa !4
  %5 = getelementptr inbounds nuw %struct.AVCodecContext, ptr %4, i32 0, i32 6
  %6 = load ptr, ptr %5, align 8, !tbaa !9
  store ptr %6, ptr %3, align 8, !tbaa !29
  %7 = load ptr, ptr %3, align 8, !tbaa !29
  %8 = getelementptr inbounds nuw %struct.WMAVoiceContext, ptr %7, i32 0, i32 4
  %9 = load i32, ptr %8, align 4, !tbaa !41
  %10 = icmp ne i32 %9, 0
  br i1 %10, label %11, label %20

11:                                               ; preds = %1
  %12 = load ptr, ptr %3, align 8, !tbaa !29
  %13 = getelementptr inbounds nuw %struct.WMAVoiceContext, ptr %12, i32 0, i32 40
  call void @av_tx_uninit(ptr noundef %13)
  %14 = load ptr, ptr %3, align 8, !tbaa !29
  %15 = getelementptr inbounds nuw %struct.WMAVoiceContext, ptr %14, i32 0, i32 41
  call void @av_tx_uninit(ptr noundef %15)
  %16 = load ptr, ptr %3, align 8, !tbaa !29
  %17 = getelementptr inbounds nuw %struct.WMAVoiceContext, ptr %16, i32 0, i32 44
  call void @av_tx_uninit(ptr noundef %17)
  %18 = load ptr, ptr %3, align 8, !tbaa !29
  %19 = getelementptr inbounds nuw %struct.WMAVoiceContext, ptr %18, i32 0, i32 45
  call void @av_tx_uninit(ptr noundef %19)
  br label %20

20:                                               ; preds = %11, %1
  call void @llvm.lifetime.end.p0(i64 8, ptr %3) #11
  ret i32 0
}