; Function Attrs: cold nounwind optsize uwtable
define internal noundef i32 @wmavoice_decode_end(ptr noundef readonly captures(none) %0) #0 {
  %2 = getelementptr inbounds nuw i8, ptr %0, i64 32
  %3 = load ptr, ptr %2, align 8, !tbaa !4
  %4 = getelementptr inbounds nuw i8, ptr %3, i64 68
  %5 = load i32, ptr %4, align 4, !tbaa !36
  %.not = icmp eq i32 %5, 0
  br i1 %.not, label %11, label %6

6:                                                ; preds = %1
  %7 = getelementptr inbounds nuw i8, ptr %3, i64 2440
  tail call void @av_tx_uninit(ptr noundef nonnull %7) #12
  %8 = getelementptr inbounds nuw i8, ptr %3, i64 2448
  tail call void @av_tx_uninit(ptr noundef nonnull %8) #12
  %9 = getelementptr inbounds nuw i8, ptr %3, i64 2472
  tail call void @av_tx_uninit(ptr noundef nonnull %9) #12
  %10 = getelementptr inbounds nuw i8, ptr %3, i64 2480
  tail call void @av_tx_uninit(ptr noundef nonnull %10) #12
  br label %11

11:                                               ; preds = %6, %1
  ret i32 0
}